target datalayout = "e-m:e-p270:32:32-p271:32:32-p272:64:64-i64:64-i128:128-f80:128-n8:16:32:64-S128"
target triple = "x86_64-pc-linux-gnu"

%"struct.icu_77::FormattedStringBuilder::Field" = type { i8 }
%"struct.icu_77::number::impl::Modifier::Parameters" = type { ptr, i32, i32 }
%"class.icu_77::number::impl::Modifier" = type { ptr }
%"class.icu_77::UObject" = type { ptr }
%"class.icu_77::UnicodeString" = type { %"class.icu_77::Replaceable", %"union.icu_77::UnicodeString::StackBufferOrFields" }
%"class.icu_77::Replaceable" = type { %"class.icu_77::UObject" }
%"union.icu_77::UnicodeString::StackBufferOrFields" = type { %struct.anon.3, [32 x i8] }
%struct.anon.3 = type { i16, i32, i32, ptr }
%"class.icu_77::number::impl::SimpleModifier" = type { %"class.icu_77::number::impl::Modifier", %"class.icu_77::UnicodeString", %"struct.icu_77::FormattedStringBuilder::Field", i8, i32, i32, i32, %"struct.icu_77::number::impl::Modifier::Parameters" }

; Function Attrs: mustprogress uwtable
define noundef i32 @_ZNK6icu_776number4impl14SimpleModifier20formatAsPrefixSuffixERNS_22FormattedStringBuilderEiiR10UErrorCode(ptr noundef nonnull align 8 dereferenceable(104) %0, ptr noundef nonnull align 8 dereferenceable(136) %1, i32 noundef %2, i32 noundef %3, ptr noundef nonnull align 4 dereferenceable(4) %4) #2 align 2 {
  %6 = alloca i32, align 4
  %7 = alloca ptr, align 8
  %8 = alloca ptr, align 8
  %9 = alloca i32, align 4
  %10 = alloca i32, align 4
  %11 = alloca ptr, align 8
  %12 = alloca %"struct.icu_77::FormattedStringBuilder::Field", align 1
  %13 = alloca %"struct.icu_77::FormattedStringBuilder::Field", align 1
  %14 = alloca %"struct.icu_77::FormattedStringBuilder::Field", align 1
  store ptr %0, ptr %7, align 8, !tbaa !57
  store ptr %1, ptr %8, align 8, !tbaa !35
  store i32 %2, ptr %9, align 4, !tbaa !37
  store i32 %3, ptr %10, align 4, !tbaa !37
  store ptr %4, ptr %11, align 8, !tbaa !39
  %15 = load ptr, ptr %7, align 8
  %16 = getelementptr inbounds nuw %"class.icu_77::number::impl::SimpleModifier", ptr %15, i32 0, i32 5
  %17 = load i32, ptr %16, align 8, !tbaa !65
  %18 = icmp eq i32 %17, -1
  br i1 %18, label %19, label %39

19:                                               ; preds = %5
  %20 = getelementptr inbounds nuw %"class.icu_77::number::impl::SimpleModifier", ptr %15, i32 0, i32 4
  %21 = load i32, ptr %20, align 4, !tbaa !64
  %22 = getelementptr inbounds nuw %"class.icu_77::number::impl::SimpleModifier", ptr %15, i32 0, i32 6
  %23 = load i32, ptr %22, align 4, !tbaa !66
  %24 = add nsw i32 %21, %23
  %25 = icmp sgt i32 %24, 0
  br i1 %25, label %26, label %39

26:                                               ; preds = %19
  %27 = load ptr, ptr %8, align 8, !tbaa !35
  %28 = load i32, ptr %9, align 4, !tbaa !37
  %29 = load i32, ptr %10, align 4, !tbaa !37
  %30 = getelementptr inbounds nuw %"class.icu_77::number::impl::SimpleModifier", ptr %15, i32 0, i32 1
  %31 = getelementptr inbounds nuw %"class.icu_77::number::impl::SimpleModifier", ptr %15, i32 0, i32 4
  %32 = load i32, ptr %31, align 4, !tbaa !64
  %33 = add nsw i32 2, %32
  %34 = getelementptr inbounds nuw %"class.icu_77::number::impl::SimpleModifier", ptr %15, i32 0, i32 2
  call void @llvm.memcpy.p0.p0.i64(ptr align 1 %12, ptr align 8 %34, i64 1, i1 false), !tbaa.struct !40
  %35 = load ptr, ptr %11, align 8, !tbaa !39
  %36 = getelementptr inbounds nuw %"struct.icu_77::FormattedStringBuilder::Field", ptr %12, i32 0, i32 0
  %37 = load i8, ptr %36, align 1
  %38 = call noundef i32 @_ZN6icu_7722FormattedStringBuilder6spliceEiiRKNS_13UnicodeStringEiiNS0_5FieldER10UErrorCode(ptr noundef nonnull align 8 dereferenceable(136) %27, i32 noundef %28, i32 noundef %29, ptr noundef nonnull align 8 dereferenceable(64) %30, i32 noundef 2, i32 noundef %33, i8 %37, ptr noundef nonnull align 4 dereferenceable(4) %35)
  store i32 %38, ptr %6, align 4
  br label %86

39:                                               ; preds = %19, %5
  %40 = getelementptr inbounds nuw %"class.icu_77::number::impl::SimpleModifier", ptr %15, i32 0, i32 4
  %41 = load i32, ptr %40, align 4, !tbaa !64
  %42 = icmp sgt i32 %41, 0
  br i1 %42, label %43, label %55

43:                                               ; preds = %39
  %44 = load ptr, ptr %8, align 8, !tbaa !35
  %45 = load i32, ptr %9, align 4, !tbaa !37
  %46 = getelementptr inbounds nuw %"class.icu_77::number::impl::SimpleModifier", ptr %15, i32 0, i32 1
  %47 = getelementptr inbounds nuw %"class.icu_77::number::impl::SimpleModifier", ptr %15, i32 0, i32 4
  %48 = load i32, ptr %47, align 4, !tbaa !64
  %49 = add nsw i32 2, %48
  %50 = getelementptr inbounds nuw %"class.icu_77::number::impl::SimpleModifier", ptr %15, i32 0, i32 2
  call void @llvm.memcpy.p0.p0.i64(ptr align 1 %13, ptr align 8 %50, i64 1, i1 false), !tbaa.struct !40
  %51 = load ptr, ptr %11, align 8, !tbaa !39
  %52 = getelementptr inbounds nuw %"struct.icu_77::FormattedStringBuilder::Field", ptr %13, i32 0, i32 0
  %53 = load i8, ptr %52, align 1
  %54 = call noundef i32 @_ZN6icu_7722FormattedStringBuilder6insertEiRKNS_13UnicodeStringEiiNS0_5FieldER10UErrorCode(ptr noundef nonnull align 8 dereferenceable(136) %44, i32 noundef %45, ptr noundef nonnull align 8 dereferenceable(64) %46, i32 noundef 2, i32 noundef %49, i8 %53, ptr noundef nonnull align 4 dereferenceable(4) %51)
  br label %55

55:                                               ; preds = %43, %39
  %56 = getelementptr inbounds nuw %"class.icu_77::number::impl::SimpleModifier", ptr %15, i32 0, i32 6
  %57 = load i32, ptr %56, align 4, !tbaa !66
  %58 = icmp sgt i32 %57, 0
  br i1 %58, label %59, label %80

59:                                               ; preds = %55
  %60 = load ptr, ptr %8, align 8, !tbaa !35
  %61 = load i32, ptr %10, align 4, !tbaa !37
  %62 = getelementptr inbounds nuw %"class.icu_77::number::impl::SimpleModifier", ptr %15, i32 0, i32 4
  %63 = load i32, ptr %62, align 4, !tbaa !64
  %64 = add nsw i32 %61, %63
  %65 = getelementptr inbounds nuw %"class.icu_77::number::impl::SimpleModifier", ptr %15, i32 0, i32 1
  %66 = getelementptr inbounds nuw %"class.icu_77::number::impl::SimpleModifier", ptr %15, i32 0, i32 5
  %67 = load i32, ptr %66, align 8, !tbaa !65
  %68 = add nsw i32 1, %67
  %69 = getelementptr inbounds nuw %"class.icu_77::number::impl::SimpleModifier", ptr %15, i32 0, i32 5
  %70 = load i32, ptr %69, align 8, !tbaa !65
  %71 = add nsw i32 1, %70
  %72 = getelementptr inbounds nuw %"class.icu_77::number::impl::SimpleModifier", ptr %15, i32 0, i32 6
  %73 = load i32, ptr %72, align 4, !tbaa !66
  %74 = add nsw i32 %71, %73
  %75 = getelementptr inbounds nuw %"class.icu_77::number::impl::SimpleModifier", ptr %15, i32 0, i32 2
  call void @llvm.memcpy.p0.p0.i64(ptr align 1 %14, ptr align 8 %75, i64 1, i1 false), !tbaa.struct !40
  %76 = load ptr, ptr %11, align 8, !tbaa !39
  %77 = getelementptr inbounds nuw %"struct.icu_77::FormattedStringBuilder::Field", ptr %14, i32 0, i32 0
  %78 = load i8, ptr %77, align 1
  %79 = call noundef i32 @_ZN6icu_7722FormattedStringBuilder6insertEiRKNS_13UnicodeStringEiiNS0_5FieldER10UErrorCode(ptr noundef nonnull align 8 dereferenceable(136) %60, i32 noundef %64, ptr noundef nonnull align 8 dereferenceable(64) %65, i32 noundef %68, i32 noundef %74, i8 %78, ptr noundef nonnull align 4 dereferenceable(4) %76)
  br label %80

80:                                               ; preds = %59, %55
  %81 = getelementptr inbounds nuw %"class.icu_77::number::impl::SimpleModifier", ptr %15, i32 0, i32 4
  %82 = load i32, ptr %81, align 4, !tbaa !64
  %83 = getelementptr inbounds nuw %"class.icu_77::number::impl::SimpleModifier", ptr %15, i32 0, i32 6
  %84 = load i32, ptr %83, align 4, !tbaa !66
  %85 = add nsw i32 %82, %84
  store i32 %85, ptr %6, align 4
  br label %86

86:                                               ; preds = %80, %26
  %87 = load i32, ptr %6, align 4
  ret i32 %87
}