; Function Attrs: mustprogress uwtable
define noundef i32 @_ZNK6icu_776number4impl14SimpleModifier20formatAsPrefixSuffixERNS_22FormattedStringBuilderEiiR10UErrorCode(ptr noundef nonnull align 8 dereferenceable(104) %0, ptr noundef nonnull align 8 dereferenceable(136) %1, i32 noundef %2, i32 noundef %3, ptr noundef nonnull align 4 dereferenceable(4) %4) local_unnamed_addr #4 align 2 {
  %6 = getelementptr inbounds nuw i8, ptr %0, i64 80
  %7 = load i32, ptr %6, align 8, !tbaa !40
  %8 = icmp eq i32 %7, -1
  %9 = getelementptr inbounds nuw i8, ptr %0, i64 76
  %10 = load i32, ptr %9, align 4, !tbaa !39
  br i1 %8, label %11, label %._crit_edge

11:                                               ; preds = %5
  %12 = getelementptr inbounds nuw i8, ptr %0, i64 84
  %13 = load i32, ptr %12, align 4, !tbaa !41
  %14 = add nsw i32 %13, %10
  %15 = icmp sgt i32 %14, 0
  br i1 %15, label %16, label %._crit_edge

16:                                               ; preds = %11
  %17 = getelementptr inbounds nuw i8, ptr %0, i64 8
  %18 = add nsw i32 %10, 2
  %19 = getelementptr inbounds nuw i8, ptr %0, i64 72
  %.sroa.02.0.copyload = load i8, ptr %19, align 8, !tbaa !21
  %20 = tail call noundef i32 @_ZN6icu_7722FormattedStringBuilder6spliceEiiRKNS_13UnicodeStringEiiNS0_5FieldER10UErrorCode(ptr noundef nonnull align 8 dereferenceable(136) %1, i32 noundef %2, i32 noundef %3, ptr noundef nonnull align 8 dereferenceable(64) %17, i32 noundef 2, i32 noundef %18, i8 %.sroa.02.0.copyload, ptr noundef nonnull align 4 dereferenceable(4) %4)
  br label %44

._crit_edge:                                      ; preds = %5, %11
  %21 = getelementptr inbounds nuw i8, ptr %0, i64 76
  %22 = icmp sgt i32 %10, 0
  br i1 %22, label %23, label %28

23:                                               ; preds = %._crit_edge
  %24 = getelementptr inbounds nuw i8, ptr %0, i64 8
  %25 = add nuw nsw i32 %10, 2
  %26 = getelementptr inbounds nuw i8, ptr %0, i64 72
  %.sroa.01.0.copyload = load i8, ptr %26, align 8, !tbaa !21
  %27 = tail call noundef i32 @_ZN6icu_7722FormattedStringBuilder6insertEiRKNS_13UnicodeStringEiiNS0_5FieldER10UErrorCode(ptr noundef nonnull align 8 dereferenceable(136) %1, i32 noundef %2, ptr noundef nonnull align 8 dereferenceable(64) %24, i32 noundef 2, i32 noundef %25, i8 %.sroa.01.0.copyload, ptr noundef nonnull align 4 dereferenceable(4) %4)
  %.pre16.pre = load i32, ptr %21, align 4, !tbaa !39
  br label %28

28:                                               ; preds = %23, %._crit_edge
  %.pre16 = phi i32 [ %.pre16.pre, %23 ], [ %10, %._crit_edge ]
  %29 = getelementptr inbounds nuw i8, ptr %0, i64 84
  %30 = load i32, ptr %29, align 4, !tbaa !41
  %31 = icmp sgt i32 %30, 0
  br i1 %31, label %32, label %40

32:                                               ; preds = %28
  %33 = add nsw i32 %.pre16, %3
  %34 = getelementptr inbounds nuw i8, ptr %0, i64 8
  %35 = load i32, ptr %6, align 8, !tbaa !40
  %36 = add nsw i32 %35, 1
  %37 = add nsw i32 %36, %30
  %38 = getelementptr inbounds nuw i8, ptr %0, i64 72
  %.sroa.0.0.copyload = load i8, ptr %38, align 8, !tbaa !21
  %39 = tail call noundef i32 @_ZN6icu_7722FormattedStringBuilder6insertEiRKNS_13UnicodeStringEiiNS0_5FieldER10UErrorCode(ptr noundef nonnull align 8 dereferenceable(136) %1, i32 noundef %33, ptr noundef nonnull align 8 dereferenceable(64) %34, i32 noundef %36, i32 noundef %37, i8 %.sroa.0.0.copyload, ptr noundef nonnull align 4 dereferenceable(4) %4)
  %.pre15 = load i32, ptr %21, align 4, !tbaa !39
  %.pre17 = load i32, ptr %29, align 4, !tbaa !41
  br label %40

40:                                               ; preds = %32, %28
  %41 = phi i32 [ %.pre17, %32 ], [ %30, %28 ]
  %42 = phi i32 [ %.pre15, %32 ], [ %.pre16, %28 ]
  %43 = add nsw i32 %41, %42
  br label %44

44:                                               ; preds = %40, %16
  %.0 = phi i32 [ %20, %16 ], [ %43, %40 ]
  ret i32 %.0
}